target datalayout = "e-m:e-p270:32:32-p271:32:32-p272:64:64-i64:64-i128:128-f80:128-n8:16:32:64-S128"
target triple = "x86_64-pc-linux-gnu"

%class.meshopt_Allocator = type { [24 x ptr], i64 }
%"struct.meshopt::VertexHasher" = type { ptr, i64, i64 }

@_ZN17meshopt_Allocator8StorageTIvE10deallocateE = linkonce_odr dso_local global ptr @_ZdlPv, comdat, align 8
@_ZN17meshopt_Allocator8StorageTIvE8allocateE = linkonce_odr dso_local global ptr @_Znwm, comdat, align 8

; Function Attrs: mustprogress nounwind uwtable
define internal noundef i32 @_ZN7meshoptL11hashUpdate4EjPKhm(i32 noundef %0, ptr noundef %1, i64 noundef %2) #2 {
  %4 = alloca i32, align 4
  %5 = alloca ptr, align 8
  %6 = alloca i64, align 8
  %7 = alloca i32, align 4
  %8 = alloca i32, align 4
  %9 = alloca i32, align 4
  store i32 %0, ptr %4, align 4, !tbaa !17
  store ptr %1, ptr %5, align 8, !tbaa !40
  store i64 %2, ptr %6, align 8, !tbaa !9
  call void @llvm.lifetime.start.p0(i64 4, ptr %7) #9
  store i32 1540483477, ptr %7, align 4, !tbaa !17
  call void @llvm.lifetime.start.p0(i64 4, ptr %8) #9
  store i32 24, ptr %8, align 4, !tbaa !17
  br label %10

10:                                               ; preds = %13, %3
  %11 = load i64, ptr %6, align 8, !tbaa !9
  %12 = icmp uge i64 %11, 4
  br i1 %12, label %13, label %33

13:                                               ; preds = %10
  call void @llvm.lifetime.start.p0(i64 4, ptr %9) #9
  %14 = load ptr, ptr %5, align 8, !tbaa !40
  %15 = load i32, ptr %14, align 4, !tbaa !17
  store i32 %15, ptr %9, align 4, !tbaa !17
  %16 = load i32, ptr %9, align 4, !tbaa !17
  %17 = mul i32 %16, 1540483477
  store i32 %17, ptr %9, align 4, !tbaa !17
  %18 = load i32, ptr %9, align 4, !tbaa !17
  %19 = lshr i32 %18, 24
  %20 = load i32, ptr %9, align 4, !tbaa !17
  %21 = xor i32 %20, %19
  store i32 %21, ptr %9, align 4, !tbaa !17
  %22 = load i32, ptr %9, align 4, !tbaa !17
  %23 = mul i32 %22, 1540483477
  store i32 %23, ptr %9, align 4, !tbaa !17
  %24 = load i32, ptr %4, align 4, !tbaa !17
  %25 = mul i32 %24, 1540483477
  store i32 %25, ptr %4, align 4, !tbaa !17
  %26 = load i32, ptr %9, align 4, !tbaa !17
  %27 = load i32, ptr %4, align 4, !tbaa !17
  %28 = xor i32 %27, %26
  store i32 %28, ptr %4, align 4, !tbaa !17
  %29 = load ptr, ptr %5, align 8, !tbaa !40
  %30 = getelementptr inbounds i8, ptr %29, i64 4
  store ptr %30, ptr %5, align 8, !tbaa !40
  %31 = load i64, ptr %6, align 8, !tbaa !9
  %32 = sub i64 %31, 4
  store i64 %32, ptr %6, align 8, !tbaa !9
  call void @llvm.lifetime.end.p0(i64 4, ptr %9) #9
  br label %10, !llvm.loop !74

33:                                               ; preds = %10
  %34 = load i32, ptr %4, align 4, !tbaa !17
  call void @llvm.lifetime.end.p0(i64 4, ptr %8) #9
  call void @llvm.lifetime.end.p0(i64 4, ptr %7) #9
  ret i32 %34
}

; Function Attrs: mustprogress nounwind uwtable
define linkonce_odr dso_local noundef zeroext i1 @_ZNK7meshopt12VertexHasher5equalEjj(ptr noundef nonnull align 8 dereferenceable(24) %0, i32 noundef %1, i32 noundef %2) #2 comdat align 2 {
  %4 = alloca ptr, align 8
  %5 = alloca i32, align 4
  %6 = alloca i32, align 4
  store ptr %0, ptr %4, align 8, !tbaa !26
  store i32 %1, ptr %5, align 4, !tbaa !17
  store i32 %2, ptr %6, align 4, !tbaa !17
  %7 = load ptr, ptr %4, align 8
  %8 = getelementptr inbounds nuw %"struct.meshopt::VertexHasher", ptr %7, i32 0, i32 0
  %9 = load ptr, ptr %8, align 8, !tbaa !12
  %10 = load i32, ptr %5, align 4, !tbaa !17
  %11 = zext i32 %10 to i64
  %12 = getelementptr inbounds nuw %"struct.meshopt::VertexHasher", ptr %7, i32 0, i32 2
  %13 = load i64, ptr %12, align 8, !tbaa !16
  %14 = mul i64 %11, %13
  %15 = getelementptr inbounds nuw i8, ptr %9, i64 %14
  %16 = getelementptr inbounds nuw %"struct.meshopt::VertexHasher", ptr %7, i32 0, i32 0
  %17 = load ptr, ptr %16, align 8, !tbaa !12
  %18 = load i32, ptr %6, align 4, !tbaa !17
  %19 = zext i32 %18 to i64
  %20 = getelementptr inbounds nuw %"struct.meshopt::VertexHasher", ptr %7, i32 0, i32 2
  %21 = load i64, ptr %20, align 8, !tbaa !16
  %22 = mul i64 %19, %21
  %23 = getelementptr inbounds nuw i8, ptr %17, i64 %22
  %24 = getelementptr inbounds nuw %"struct.meshopt::VertexHasher", ptr %7, i32 0, i32 1
  %25 = load i64, ptr %24, align 8, !tbaa !15
  %26 = call i32 @memcmp(ptr noundef %15, ptr noundef %23, i64 noundef %25) #11
  %27 = icmp eq i32 %26, 0
  ret i1 %27
}

; Function Attrs: mustprogress uwtable
define linkonce_odr dso_local noundef i64 @_ZNK7meshopt12VertexHasher4hashEj(ptr noundef nonnull align 8 dereferenceable(24) %0, i32 noundef %1) #0 comdat align 2 {
  %3 = alloca ptr, align 8
  %4 = alloca i32, align 4
  store ptr %0, ptr %3, align 8, !tbaa !26
  store i32 %1, ptr %4, align 4, !tbaa !17
  %5 = load ptr, ptr %3, align 8
  %6 = getelementptr inbounds nuw %"struct.meshopt::VertexHasher", ptr %5, i32 0, i32 0
  %7 = load ptr, ptr %6, align 8, !tbaa !12
  %8 = load i32, ptr %4, align 4, !tbaa !17
  %9 = zext i32 %8 to i64
  %10 = getelementptr inbounds nuw %"struct.meshopt::VertexHasher", ptr %5, i32 0, i32 2
  %11 = load i64, ptr %10, align 8, !tbaa !16
  %12 = mul i64 %9, %11
  %13 = getelementptr inbounds nuw i8, ptr %7, i64 %12
  %14 = getelementptr inbounds nuw %"struct.meshopt::VertexHasher", ptr %5, i32 0, i32 1
  %15 = load i64, ptr %14, align 8, !tbaa !15
  %16 = call noundef i32 @_ZN7meshoptL11hashUpdate4EjPKhm(i32 noundef 0, ptr noundef %13, i64 noundef %15)
  %17 = zext i32 %16 to i64
  ret i64 %17
}

; Function Attrs: mustprogress uwtable
define linkonce_odr dso_local void @_ZN17meshopt_Allocator10deallocateEPv(ptr noundef nonnull align 8 dereferenceable(200) %0, ptr noundef %1) #0 comdat align 2 {
  %3 = alloca ptr, align 8
  %4 = alloca ptr, align 8
  store ptr %0, ptr %3, align 8, !tbaa !21
  store ptr %1, ptr %4, align 8, !tbaa !11
  %5 = load ptr, ptr %3, align 8
  %6 = load ptr, ptr @_ZN17meshopt_Allocator8StorageTIvE10deallocateE, align 8, !tbaa !11
  %7 = load ptr, ptr %4, align 8, !tbaa !11
  call void %6(ptr noundef %7)
  %8 = getelementptr inbounds nuw %class.meshopt_Allocator, ptr %5, i32 0, i32 1
  %9 = load i64, ptr %8, align 8, !tbaa !23
  %10 = add i64 %9, -1
  store i64 %10, ptr %8, align 8, !tbaa !23
  ret void
}

; Function Attrs: mustprogress uwtable
define internal noundef ptr @_ZN7meshoptL10hashLookupIjNS_12VertexHasherEEEPT_S3_mRKT0_RKS2_S8_(ptr noundef %0, i64 noundef %1, ptr noundef nonnull align 8 dereferenceable(24) %2, ptr noundef nonnull align 4 dereferenceable(4) %3, ptr noundef nonnull align 4 dereferenceable(4) %4) #0 {
  %6 = alloca ptr, align 8
  %7 = alloca ptr, align 8
  %8 = alloca i64, align 8
  %9 = alloca ptr, align 8
  %10 = alloca ptr, align 8
  %11 = alloca ptr, align 8
  %12 = alloca i64, align 8
  %13 = alloca i64, align 8
  %14 = alloca i64, align 8
  %15 = alloca i32, align 4
  %16 = alloca ptr, align 8
  store ptr %0, ptr %7, align 8, !tbaa !4
  store i64 %1, ptr %8, align 8, !tbaa !9
  store ptr %2, ptr %9, align 8, !tbaa !26
  store ptr %3, ptr %10, align 8, !tbaa !4
  store ptr %4, ptr %11, align 8, !tbaa !4
  call void @llvm.lifetime.start.p0(i64 8, ptr %12) #9
  %17 = load i64, ptr %8, align 8, !tbaa !9
  %18 = sub i64 %17, 1
  store i64 %18, ptr %12, align 8, !tbaa !9
  call void @llvm.lifetime.start.p0(i64 8, ptr %13) #9
  %19 = load ptr, ptr %9, align 8, !tbaa !26
  %20 = load ptr, ptr %10, align 8, !tbaa !4
  %21 = load i32, ptr %20, align 4, !tbaa !17
  %22 = call noundef i64 @_ZNK7meshopt12VertexHasher4hashEj(ptr noundef nonnull align 8 dereferenceable(24) %19, i32 noundef %21)
  %23 = load i64, ptr %12, align 8, !tbaa !9
  %24 = and i64 %22, %23
  store i64 %24, ptr %13, align 8, !tbaa !9
  call void @llvm.lifetime.start.p0(i64 8, ptr %14) #9
  store i64 0, ptr %14, align 8, !tbaa !9
  br label %25

25:                                               ; preds = %60, %5
  %26 = load i64, ptr %14, align 8, !tbaa !9
  %27 = load i64, ptr %12, align 8, !tbaa !9
  %28 = icmp ule i64 %26, %27
  br i1 %28, label %30, label %29

29:                                               ; preds = %25
  store i32 2, ptr %15, align 4
  br label %63

30:                                               ; preds = %25
  call void @llvm.lifetime.start.p0(i64 8, ptr %16) #9
  %31 = load ptr, ptr %7, align 8, !tbaa !4
  %32 = load i64, ptr %13, align 8, !tbaa !9
  %33 = getelementptr inbounds nuw i32, ptr %31, i64 %32
  store ptr %33, ptr %16, align 8, !tbaa !4
  %34 = load ptr, ptr %16, align 8, !tbaa !4
  %35 = load i32, ptr %34, align 4, !tbaa !17
  %36 = load ptr, ptr %11, align 8, !tbaa !4
  %37 = load i32, ptr %36, align 4, !tbaa !17
  %38 = icmp eq i32 %35, %37
  br i1 %38, label %39, label %41

39:                                               ; preds = %30
  %40 = load ptr, ptr %16, align 8, !tbaa !4
  store ptr %40, ptr %6, align 8
  store i32 1, ptr %15, align 4
  br label %57

41:                                               ; preds = %30
  %42 = load ptr, ptr %9, align 8, !tbaa !26
  %43 = load ptr, ptr %16, align 8, !tbaa !4
  %44 = load i32, ptr %43, align 4, !tbaa !17
  %45 = load ptr, ptr %10, align 8, !tbaa !4
  %46 = load i32, ptr %45, align 4, !tbaa !17
  %47 = call noundef zeroext i1 @_ZNK7meshopt12VertexHasher5equalEjj(ptr noundef nonnull align 8 dereferenceable(24) %42, i32 noundef %44, i32 noundef %46)
  br i1 %47, label %48, label %50

48:                                               ; preds = %41
  %49 = load ptr, ptr %16, align 8, !tbaa !4
  store ptr %49, ptr %6, align 8
  store i32 1, ptr %15, align 4
  br label %57

50:                                               ; preds = %41
  %51 = load i64, ptr %13, align 8, !tbaa !9
  %52 = load i64, ptr %14, align 8, !tbaa !9
  %53 = add i64 %51, %52
  %54 = add i64 %53, 1
  %55 = load i64, ptr %12, align 8, !tbaa !9
  %56 = and i64 %54, %55
  store i64 %56, ptr %13, align 8, !tbaa !9
  store i32 0, ptr %15, align 4
  br label %57

57:                                               ; preds = %50, %48, %39
  call void @llvm.lifetime.end.p0(i64 8, ptr %16) #9
  %58 = load i32, ptr %15, align 4
  switch i32 %58, label %63 [
    i32 0, label %59
  ]

59:                                               ; preds = %57
  br label %60

60:                                               ; preds = %59
  %61 = load i64, ptr %14, align 8, !tbaa !9
  %62 = add i64 %61, 1
  store i64 %62, ptr %14, align 8, !tbaa !9
  br label %25, !llvm.loop !28

63:                                               ; preds = %57, %29
  call void @llvm.lifetime.end.p0(i64 8, ptr %14) #9
  %64 = load i32, ptr %15, align 4
  switch i32 %64, label %66 [
    i32 2, label %65
  ]

65:                                               ; preds = %63
  store ptr null, ptr %6, align 8
  store i32 1, ptr %15, align 4
  br label %66

66:                                               ; preds = %65, %63
  call void @llvm.lifetime.end.p0(i64 8, ptr %13) #9
  call void @llvm.lifetime.end.p0(i64 8, ptr %12) #9
  %67 = load ptr, ptr %6, align 8
  ret ptr %67
}

; Function Attrs: mustprogress uwtable
define linkonce_odr dso_local noundef ptr @_ZN17meshopt_Allocator8allocateIjEEPT_m(ptr noundef nonnull align 8 dereferenceable(200) %0, i64 noundef %1) #0 comdat align 2 {
  %3 = alloca ptr, align 8
  %4 = alloca i64, align 8
  %5 = alloca ptr, align 8
  store ptr %0, ptr %3, align 8, !tbaa !21
  store i64 %1, ptr %4, align 8, !tbaa !9
  %6 = load ptr, ptr %3, align 8
  call void @llvm.lifetime.start.p0(i64 8, ptr %5) #9
  %7 = load ptr, ptr @_ZN17meshopt_Allocator8StorageTIvE8allocateE, align 8, !tbaa !11
  %8 = load i64, ptr %4, align 8, !tbaa !9
  %9 = icmp ugt i64 %8, 4611686018427387903
  br i1 %9, label %10, label %11

10:                                               ; preds = %2
  br label %14

11:                                               ; preds = %2
  %12 = load i64, ptr %4, align 8, !tbaa !9
  %13 = mul i64 %12, 4
  br label %14

14:                                               ; preds = %11, %10
  %15 = phi i64 [ -1, %10 ], [ %13, %11 ]
  %16 = call noundef ptr %7(i64 noundef %15)
  store ptr %16, ptr %5, align 8, !tbaa !4
  %17 = load ptr, ptr %5, align 8, !tbaa !4
  %18 = getelementptr inbounds nuw %class.meshopt_Allocator, ptr %6, i32 0, i32 0
  %19 = getelementptr inbounds nuw %class.meshopt_Allocator, ptr %6, i32 0, i32 1
  %20 = load i64, ptr %19, align 8, !tbaa !23
  %21 = add i64 %20, 1
  store i64 %21, ptr %19, align 8, !tbaa !23
  %22 = getelementptr inbounds nuw [24 x ptr], ptr %18, i64 0, i64 %20
  store ptr %17, ptr %22, align 8, !tbaa !11
  %23 = load ptr, ptr %5, align 8, !tbaa !4
  call void @llvm.lifetime.end.p0(i64 8, ptr %5) #9
  ret ptr %23
}

; Function Attrs: mustprogress nounwind uwtable
define internal noundef i64 @_ZN7meshoptL11hashBucketsEm(i64 noundef %0) #2 {
  %2 = alloca i64, align 8
  %3 = alloca i64, align 8
  store i64 %0, ptr %2, align 8, !tbaa !9
  call void @llvm.lifetime.start.p0(i64 8, ptr %3) #9
  store i64 1, ptr %3, align 8, !tbaa !9
  br label %4

4:                                                ; preds = %11, %1
  %5 = load i64, ptr %3, align 8, !tbaa !9
  %6 = load i64, ptr %2, align 8, !tbaa !9
  %7 = load i64, ptr %2, align 8, !tbaa !9
  %8 = udiv i64 %7, 4
  %9 = add i64 %6, %8
  %10 = icmp ult i64 %5, %9
  br i1 %10, label %11, label %14

11:                                               ; preds = %4
  %12 = load i64, ptr %3, align 8, !tbaa !9
  %13 = mul i64 %12, 2
  store i64 %13, ptr %3, align 8, !tbaa !9
  br label %4, !llvm.loop !25

14:                                               ; preds = %4
  %15 = load i64, ptr %3, align 8, !tbaa !9
  call void @llvm.lifetime.end.p0(i64 8, ptr %3) #9
  ret i64 %15
}

; Function Attrs: mustprogress uwtable
define internal void @_ZN7meshoptL18buildPositionRemapEPjPKfmmR17meshopt_Allocator(ptr noundef %0, ptr noundef %1, i64 noundef %2, i64 noundef %3, ptr noundef nonnull align 8 dereferenceable(200) %4) #0 {
  %6 = alloca ptr, align 8
  %7 = alloca ptr, align 8
  %8 = alloca i64, align 8
  %9 = alloca i64, align 8
  %10 = alloca ptr, align 8
  %11 = alloca %"struct.meshopt::VertexHasher", align 8
  %12 = alloca i64, align 8
  %13 = alloca ptr, align 8
  %14 = alloca i64, align 8
  %15 = alloca i32, align 4
  %16 = alloca ptr, align 8
  %17 = alloca i32, align 4
  store ptr %0, ptr %6, align 8, !tbaa !4
  store ptr %1, ptr %7, align 8, !tbaa !50
  store i64 %2, ptr %8, align 8, !tbaa !9
  store i64 %3, ptr %9, align 8, !tbaa !9
  store ptr %4, ptr %10, align 8, !tbaa !21
  call void @llvm.lifetime.start.p0(i64 24, ptr %11) #9
  %18 = getelementptr inbounds nuw %"struct.meshopt::VertexHasher", ptr %11, i32 0, i32 0
  %19 = load ptr, ptr %7, align 8, !tbaa !50
  store ptr %19, ptr %18, align 8, !tbaa !12
  %20 = getelementptr inbounds nuw %"struct.meshopt::VertexHasher", ptr %11, i32 0, i32 1
  store i64 12, ptr %20, align 8, !tbaa !15
  %21 = getelementptr inbounds nuw %"struct.meshopt::VertexHasher", ptr %11, i32 0, i32 2
  %22 = load i64, ptr %9, align 8, !tbaa !9
  store i64 %22, ptr %21, align 8, !tbaa !16
  call void @llvm.lifetime.start.p0(i64 8, ptr %12) #9
  %23 = load i64, ptr %8, align 8, !tbaa !9
  %24 = call noundef i64 @_ZN7meshoptL11hashBucketsEm(i64 noundef %23)
  store i64 %24, ptr %12, align 8, !tbaa !9
  call void @llvm.lifetime.start.p0(i64 8, ptr %13) #9
  %25 = load ptr, ptr %10, align 8, !tbaa !21
  %26 = load i64, ptr %12, align 8, !tbaa !9
  %27 = call noundef ptr @_ZN17meshopt_Allocator8allocateIjEEPT_m(ptr noundef nonnull align 8 dereferenceable(200) %25, i64 noundef %26)
  store ptr %27, ptr %13, align 8, !tbaa !4
  %28 = load ptr, ptr %13, align 8, !tbaa !4
  %29 = load i64, ptr %12, align 8, !tbaa !9
  %30 = mul i64 %29, 4
  call void @llvm.memset.p0.i64(ptr align 4 %28, i8 -1, i64 %30, i1 false)
  call void @llvm.lifetime.start.p0(i64 8, ptr %14) #9
  store i64 0, ptr %14, align 8, !tbaa !9
  br label %31

31:                                               ; preds = %55, %5
  %32 = load i64, ptr %14, align 8, !tbaa !9
  %33 = load i64, ptr %8, align 8, !tbaa !9
  %34 = icmp ult i64 %32, %33
  br i1 %34, label %36, label %35

35:                                               ; preds = %31
  call void @llvm.lifetime.end.p0(i64 8, ptr %14) #9
  br label %58

36:                                               ; preds = %31
  call void @llvm.lifetime.start.p0(i64 4, ptr %15) #9
  %37 = load i64, ptr %14, align 8, !tbaa !9
  %38 = trunc i64 %37 to i32
  store i32 %38, ptr %15, align 4, !tbaa !17
  call void @llvm.lifetime.start.p0(i64 8, ptr %16) #9
  %39 = load ptr, ptr %13, align 8, !tbaa !4
  %40 = load i64, ptr %12, align 8, !tbaa !9
  call void @llvm.lifetime.start.p0(i64 4, ptr %17) #9
  store i32 -1, ptr %17, align 4, !tbaa !17
  %41 = call noundef ptr @_ZN7meshoptL10hashLookupIjNS_12VertexHasherEEEPT_S3_mRKT0_RKS2_S8_(ptr noundef %39, i64 noundef %40, ptr noundef nonnull align 8 dereferenceable(24) %11, ptr noundef nonnull align 4 dereferenceable(4) %15, ptr noundef nonnull align 4 dereferenceable(4) %17)
  call void @llvm.lifetime.end.p0(i64 4, ptr %17) #9
  store ptr %41, ptr %16, align 8, !tbaa !4
  %42 = load ptr, ptr %16, align 8, !tbaa !4
  %43 = load i32, ptr %42, align 4, !tbaa !17
  %44 = icmp eq i32 %43, -1
  br i1 %44, label %45, label %48

45:                                               ; preds = %36
  %46 = load i32, ptr %15, align 4, !tbaa !17
  %47 = load ptr, ptr %16, align 8, !tbaa !4
  store i32 %46, ptr %47, align 4, !tbaa !17
  br label %48

48:                                               ; preds = %45, %36
  %49 = load ptr, ptr %16, align 8, !tbaa !4
  %50 = load i32, ptr %49, align 4, !tbaa !17
  %51 = load ptr, ptr %6, align 8, !tbaa !4
  %52 = load i32, ptr %15, align 4, !tbaa !17
  %53 = zext i32 %52 to i64
  %54 = getelementptr inbounds nuw i32, ptr %51, i64 %53
  store i32 %50, ptr %54, align 4, !tbaa !17
  call void @llvm.lifetime.end.p0(i64 8, ptr %16) #9
  call void @llvm.lifetime.end.p0(i64 4, ptr %15) #9
  br label %55

55:                                               ; preds = %48
  %56 = load i64, ptr %14, align 8, !tbaa !9
  %57 = add i64 %56, 1
  store i64 %57, ptr %14, align 8, !tbaa !9
  br label %31, !llvm.loop !62

58:                                               ; preds = %35
  %59 = load ptr, ptr %10, align 8, !tbaa !21
  %60 = load ptr, ptr %13, align 8, !tbaa !4
  call void @_ZN17meshopt_Allocator10deallocateEPv(ptr noundef nonnull align 8 dereferenceable(200) %59, ptr noundef %60)
  call void @llvm.lifetime.end.p0(i64 8, ptr %13) #9
  call void @llvm.lifetime.end.p0(i64 8, ptr %12) #9
  call void @llvm.lifetime.end.p0(i64 24, ptr %11) #9
  ret void
}