; Function Attrs: mustprogress uwtable
define internal fastcc void @_ZN7meshoptL18buildPositionRemapEPjPKfmmR17meshopt_Allocator(ptr noundef writeonly captures(none) %0, ptr noundef readonly captures(none) %1, i64 noundef %2, i64 noundef %3, ptr noundef nonnull align 8 captures(none) dereferenceable(200) %4) unnamed_addr #0 {
  %6 = lshr i64 %2, 2
  %7 = add i64 %6, %2
  br label %8

8:                                                ; preds = %8, %5
  %.0.i = phi i64 [ 1, %5 ], [ %10, %8 ]
  %9 = icmp ult i64 %.0.i, %7
  %10 = shl i64 %.0.i, 1
  br i1 %9, label %8, label %_ZN7meshoptL11hashBucketsEm.exit, !llvm.loop !4

_ZN7meshoptL11hashBucketsEm.exit:                 ; preds = %8
  %11 = load ptr, ptr @_ZN17meshopt_Allocator8StorageTIvE8allocateE, align 8, !tbaa !6
  %12 = icmp ugt i64 %.0.i, 4611686018427387903
  %13 = shl i64 %.0.i, 2
  %14 = select i1 %12, i64 -1, i64 %13
  %15 = tail call noundef ptr %11(i64 noundef %14)
  %16 = getelementptr inbounds nuw i8, ptr %4, i64 192
  %17 = load i64, ptr %16, align 8, !tbaa !15
  %18 = add i64 %17, 1
  store i64 %18, ptr %16, align 8, !tbaa !15
  %19 = getelementptr inbounds nuw [24 x ptr], ptr %4, i64 0, i64 %17
  store ptr %15, ptr %19, align 8, !tbaa !6
  tail call void @llvm.memset.p0.i64(ptr align 4 %15, i8 -1, i64 %13, i1 false)
  %.not32 = icmp eq i64 %2, 0
  br i1 %.not32, label %._crit_edge, label %.lr.ph.i.preheader.i.i.lr.ph

.lr.ph.i.preheader.i.i.lr.ph:                     ; preds = %_ZN7meshoptL11hashBucketsEm.exit
  %20 = add i64 %.0.i, -1
  br label %.lr.ph.i.preheader.i.i

._crit_edge:                                      ; preds = %_ZN7meshoptL10hashLookupIjNS_12VertexHasherEEEPT_S3_mRKT0_RKS2_S8_.exit, %_ZN7meshoptL11hashBucketsEm.exit
  %21 = load ptr, ptr @_ZN17meshopt_Allocator8StorageTIvE10deallocateE, align 8, !tbaa !6
  tail call void %21(ptr noundef %15)
  %22 = load i64, ptr %16, align 8, !tbaa !15
  %23 = add i64 %22, -1
  store i64 %23, ptr %16, align 8, !tbaa !15
  ret void

.lr.ph.i.preheader.i.i:                           ; preds = %.lr.ph.i.preheader.i.i.lr.ph, %_ZN7meshoptL10hashLookupIjNS_12VertexHasherEEEPT_S3_mRKT0_RKS2_S8_.exit
  %.031 = phi i64 [ 0, %.lr.ph.i.preheader.i.i.lr.ph ], [ %54, %_ZN7meshoptL10hashLookupIjNS_12VertexHasherEEEPT_S3_mRKT0_RKS2_S8_.exit ]
  %24 = and i64 %.031, 4294967295
  %25 = mul i64 %24, %3
  %26 = getelementptr inbounds nuw i8, ptr %1, i64 %25
  br label %.lr.ph.i.i.i

.lr.ph.i.i.i:                                     ; preds = %.lr.ph.i.i.i, %.lr.ph.i.preheader.i.i
  %.015.i.i.i = phi i32 [ %33, %.lr.ph.i.i.i ], [ 0, %.lr.ph.i.preheader.i.i ]
  %.01114.i.i.i = phi ptr [ %34, %.lr.ph.i.i.i ], [ %26, %.lr.ph.i.preheader.i.i ]
  %.01213.i.i.i = phi i64 [ %35, %.lr.ph.i.i.i ], [ 12, %.lr.ph.i.preheader.i.i ]
  %27 = load i32, ptr %.01114.i.i.i, align 4, !tbaa !10
  %28 = mul i32 %27, 1540483477
  %29 = lshr i32 %28, 24
  %30 = xor i32 %29, %28
  %31 = mul i32 %30, 1540483477
  %32 = mul i32 %.015.i.i.i, 1540483477
  %33 = xor i32 %31, %32
  %34 = getelementptr inbounds nuw i8, ptr %.01114.i.i.i, i64 4
  %35 = add nsw i64 %.01213.i.i.i, -4
  %.not = icmp eq i64 %35, 0
  br i1 %.not, label %_ZNK7meshopt12VertexHasher4hashEj.exit.i, label %.lr.ph.i.i.i, !llvm.loop !12

_ZNK7meshopt12VertexHasher4hashEj.exit.i:         ; preds = %.lr.ph.i.i.i
  %36 = trunc i64 %.031 to i32
  %37 = zext i32 %33 to i64
  %.02513.i28 = and i64 %20, %37
  %38 = getelementptr inbounds nuw i32, ptr %15, i64 %.02513.i28
  %39 = load i32, ptr %38, align 4, !tbaa !10
  %40 = icmp eq i32 %39, -1
  br i1 %40, label %_ZN7meshoptL10hashLookupIjNS_12VertexHasherEEEPT_S3_mRKT0_RKS2_S8_.exit.thread, label %.lr.ph

.lr.ph:                                           ; preds = %_ZNK7meshopt12VertexHasher4hashEj.exit.i, %45
  %.pr = phi i32 [ %49, %45 ], [ %39, %_ZNK7meshopt12VertexHasher4hashEj.exit.i ]
  %.02513.i30 = phi i64 [ %.02513.i, %45 ], [ %.02513.i28, %_ZNK7meshopt12VertexHasher4hashEj.exit.i ]
  %.02412.i29 = phi i64 [ %46, %45 ], [ 0, %_ZNK7meshopt12VertexHasher4hashEj.exit.i ]
  %41 = zext i32 %.pr to i64
  %42 = mul i64 %3, %41
  %43 = getelementptr inbounds nuw i8, ptr %1, i64 %42
  %bcmp.i.i = tail call i32 @bcmp(ptr noundef nonnull dereferenceable(12) %43, ptr noundef nonnull dereferenceable(12) %26, i64 12)
  %44 = icmp eq i32 %bcmp.i.i, 0
  br i1 %44, label %_ZN7meshoptL10hashLookupIjNS_12VertexHasherEEEPT_S3_mRKT0_RKS2_S8_.exit, label %45

45:                                               ; preds = %.lr.ph
  %46 = add i64 %.02412.i29, 1
  %47 = add i64 %46, %.02513.i30
  %.not.i = icmp ule i64 %46, %20
  tail call void @llvm.assume(i1 %.not.i)
  %.02513.i = and i64 %47, %20
  %48 = getelementptr inbounds nuw i32, ptr %15, i64 %.02513.i
  %49 = load i32, ptr %48, align 4, !tbaa !10
  %50 = icmp eq i32 %49, -1
  br i1 %50, label %_ZN7meshoptL10hashLookupIjNS_12VertexHasherEEEPT_S3_mRKT0_RKS2_S8_.exit.thread, label %.lr.ph

_ZN7meshoptL10hashLookupIjNS_12VertexHasherEEEPT_S3_mRKT0_RKS2_S8_.exit.thread: ; preds = %45, %_ZNK7meshopt12VertexHasher4hashEj.exit.i
  %.02513.i.lcssa27 = phi i64 [ %.02513.i28, %_ZNK7meshopt12VertexHasher4hashEj.exit.i ], [ %.02513.i, %45 ]
  %51 = getelementptr inbounds nuw i32, ptr %15, i64 %.02513.i.lcssa27
  store i32 %36, ptr %51, align 4, !tbaa !10
  br label %_ZN7meshoptL10hashLookupIjNS_12VertexHasherEEEPT_S3_mRKT0_RKS2_S8_.exit

_ZN7meshoptL10hashLookupIjNS_12VertexHasherEEEPT_S3_mRKT0_RKS2_S8_.exit: ; preds = %.lr.ph, %_ZN7meshoptL10hashLookupIjNS_12VertexHasherEEEPT_S3_mRKT0_RKS2_S8_.exit.thread
  %52 = phi i32 [ %36, %_ZN7meshoptL10hashLookupIjNS_12VertexHasherEEEPT_S3_mRKT0_RKS2_S8_.exit.thread ], [ %.pr, %.lr.ph ]
  %53 = getelementptr inbounds nuw i32, ptr %0, i64 %24
  store i32 %52, ptr %53, align 4, !tbaa !10
  %54 = add nuw i64 %.031, 1
  %exitcond.not = icmp eq i64 %54, %2
  br i1 %exitcond.not, label %._crit_edge, label %.lr.ph.i.preheader.i.i, !llvm.loop !39
}